target datalayout = "e-m:e-p270:32:32-p271:32:32-p272:64:64-i64:64-i128:128-f80:128-n8:16:32:64-S128"
target triple = "x86_64-unknown-linux-gnu"

; Function Attrs: nounwind uwtable
define dso_local void @updateCommandLatencyHistogram(ptr noundef %latency_histogram, i64 noundef %duration_hist) #0 {
entry:
  %latency_histogram.addr = alloca ptr, align 8
  %duration_hist.addr = alloca i64, align 8
  store ptr %latency_histogram, ptr %latency_histogram.addr, align 8
  store i64 %duration_hist, ptr %duration_hist.addr, align 8
  %0 = load i64, ptr %duration_hist.addr, align 8
  %cmp = icmp slt i64 %0, 1
  br i1 %cmp, label %if.then, label %if.end

if.then:                                          ; preds = %entry
  store i64 1, ptr %duration_hist.addr, align 8
  br label %if.end

if.end:                                           ; preds = %if.then, %entry
  %1 = load i64, ptr %duration_hist.addr, align 8
  %cmp1 = icmp sgt i64 %1, 1000000000
  br i1 %cmp1, label %if.then2, label %if.end3

if.then2:                                         ; preds = %if.end
  store i64 1000000000, ptr %duration_hist.addr, align 8
  br label %if.end3

if.end3:                                          ; preds = %if.then2, %if.end
  %2 = load ptr, ptr %latency_histogram.addr, align 8
  %3 = load ptr, ptr %2, align 8
  %cmp4 = icmp eq ptr %3, null
  br i1 %cmp4, label %if.then5, label %if.end6

if.then5:                                         ; preds = %if.end3
  %4 = load ptr, ptr %latency_histogram.addr, align 8
  %call = call i32 @hdr_init(i64 noundef 1, i64 noundef 1000000000, i32 noundef 2, ptr noundef %4)
  br label %if.end6

if.end6:                                          ; preds = %if.then5, %if.end3
  %5 = load ptr, ptr %latency_histogram.addr, align 8
  %6 = load ptr, ptr %5, align 8
  %7 = load i64, ptr %duration_hist.addr, align 8
  %call7 = call zeroext i1 @hdr_record_value(ptr noundef %6, i64 noundef %7)
  ret void
}