; Function Attrs: nounwind uwtable
define dso_local void @updateCommandLatencyHistogram(ptr noundef %latency_histogram, i64 noundef %duration_hist) local_unnamed_addr #0 {
entry:
  %0 = load ptr, ptr %latency_histogram, align 8
  %cmp4 = icmp eq ptr %0, null
  br i1 %cmp4, label %if.then5, label %if.end6

if.then5:                                         ; preds = %entry
  %call = tail call i32 @hdr_init(i64 noundef 1, i64 noundef 1000000000, i32 noundef 2, ptr noundef nonnull %latency_histogram) #38
  %.pre = load ptr, ptr %latency_histogram, align 8
  br label %if.end6

if.end6:                                          ; preds = %if.then5, %entry
  %1 = phi ptr [ %.pre, %if.then5 ], [ %0, %entry ]
  %spec.store.select = tail call i64 @llvm.smax.i64(i64 %duration_hist, i64 1)
  %spec.store.select1 = tail call i64 @llvm.umin.i64(i64 %spec.store.select, i64 1000000000)
  %call7 = tail call zeroext i1 @hdr_record_value(ptr noundef %1, i64 noundef %spec.store.select1) #38
  ret void
}